target datalayout = "e-m:e-p270:32:32-p271:32:32-p272:64:64-i64:64-i128:128-f80:128-n8:16:32:64-S128"
target triple = "x86_64-pc-linux-gnu"

%struct._zval_struct = type { %union._zend_value, %union.anon, %union.anon.2 }
%union._zend_value = type { i64 }
%union.anon = type { i32 }
%union.anon.2 = type { i32 }
%struct._zend_refcounted_h = type { i32, %union.anon.3 }
%union.anon.3 = type { i32 }
%struct._zend_object = type { %struct._zend_refcounted_h, i32, ptr, ptr, ptr, [1 x %struct._zval_struct] }
%struct._php_libxml_node_object = type { ptr, ptr, %struct._zend_object }
%struct._php_libxml_ref_obj = type { ptr, ptr, %struct.php_libxml_cache_tag, i32, i8 }
%struct.php_libxml_cache_tag = type { i64 }
%struct._libxml_doc_props = type { ptr, i8, i8, i8, i8, i8, i8, i8 }

; Function Attrs: nounwind uwtable
define i32 @php_libxml_decrement_doc_ref(ptr noundef %0) #0 {
  %2 = alloca ptr, align 8
  %3 = alloca i32, align 4
  store ptr %0, ptr %2, align 8
  store i32 -1, ptr %3, align 4
  %4 = load ptr, ptr %2, align 8
  %5 = icmp ne ptr %4, null
  br i1 %5, label %6, label %79

6:                                                ; preds = %1
  %7 = load ptr, ptr %2, align 8
  %8 = getelementptr inbounds %struct._php_libxml_node_object, ptr %7, i32 0, i32 1
  %9 = load ptr, ptr %8, align 8
  %10 = icmp ne ptr %9, null
  br i1 %10, label %11, label %79

11:                                               ; preds = %6
  %12 = load ptr, ptr %2, align 8
  %13 = getelementptr inbounds %struct._php_libxml_node_object, ptr %12, i32 0, i32 1
  %14 = load ptr, ptr %13, align 8
  %15 = getelementptr inbounds %struct._php_libxml_ref_obj, ptr %14, i32 0, i32 3
  %16 = load i32, ptr %15, align 8
  %17 = add nsw i32 %16, -1
  store i32 %17, ptr %15, align 8
  store i32 %17, ptr %3, align 4
  %18 = load i32, ptr %3, align 4
  %19 = icmp eq i32 %18, 0
  br i1 %19, label %20, label %76

20:                                               ; preds = %11
  %21 = load ptr, ptr %2, align 8
  %22 = getelementptr inbounds %struct._php_libxml_node_object, ptr %21, i32 0, i32 1
  %23 = load ptr, ptr %22, align 8
  %24 = getelementptr inbounds %struct._php_libxml_ref_obj, ptr %23, i32 0, i32 0
  %25 = load ptr, ptr %24, align 8
  %26 = icmp ne ptr %25, null
  br i1 %26, label %27, label %33

27:                                               ; preds = %20
  %28 = load ptr, ptr %2, align 8
  %29 = getelementptr inbounds %struct._php_libxml_node_object, ptr %28, i32 0, i32 1
  %30 = load ptr, ptr %29, align 8
  %31 = getelementptr inbounds %struct._php_libxml_ref_obj, ptr %30, i32 0, i32 0
  %32 = load ptr, ptr %31, align 8
  call void @xmlFreeDoc(ptr noundef %32)
  br label %33

33:                                               ; preds = %27, %20
  %34 = load ptr, ptr %2, align 8
  %35 = getelementptr inbounds %struct._php_libxml_node_object, ptr %34, i32 0, i32 1
  %36 = load ptr, ptr %35, align 8
  %37 = getelementptr inbounds %struct._php_libxml_ref_obj, ptr %36, i32 0, i32 1
  %38 = load ptr, ptr %37, align 8
  %39 = icmp ne ptr %38, null
  br i1 %39, label %40, label %72

40:                                               ; preds = %33
  %41 = load ptr, ptr %2, align 8
  %42 = getelementptr inbounds %struct._php_libxml_node_object, ptr %41, i32 0, i32 1
  %43 = load ptr, ptr %42, align 8
  %44 = getelementptr inbounds %struct._php_libxml_ref_obj, ptr %43, i32 0, i32 1
  %45 = load ptr, ptr %44, align 8
  %46 = getelementptr inbounds %struct._libxml_doc_props, ptr %45, i32 0, i32 0
  %47 = load ptr, ptr %46, align 8
  %48 = icmp ne ptr %47, null
  br i1 %48, label %49, label %66

49:                                               ; preds = %40
  %50 = load ptr, ptr %2, align 8
  %51 = getelementptr inbounds %struct._php_libxml_node_object, ptr %50, i32 0, i32 1
  %52 = load ptr, ptr %51, align 8
  %53 = getelementptr inbounds %struct._php_libxml_ref_obj, ptr %52, i32 0, i32 1
  %54 = load ptr, ptr %53, align 8
  %55 = getelementptr inbounds %struct._libxml_doc_props, ptr %54, i32 0, i32 0
  %56 = load ptr, ptr %55, align 8
  call void @zend_hash_destroy(ptr noundef %56)
  br label %57

57:                                               ; preds = %49
  %58 = load ptr, ptr %2, align 8
  %59 = getelementptr inbounds %struct._php_libxml_node_object, ptr %58, i32 0, i32 1
  %60 = load ptr, ptr %59, align 8
  %61 = getelementptr inbounds %struct._php_libxml_ref_obj, ptr %60, i32 0, i32 1
  %62 = load ptr, ptr %61, align 8
  %63 = getelementptr inbounds %struct._libxml_doc_props, ptr %62, i32 0, i32 0
  %64 = load ptr, ptr %63, align 8
  call void @_efree_56(ptr noundef %64)
  br label %65

65:                                               ; preds = %57
  br label %66

66:                                               ; preds = %65, %40
  %67 = load ptr, ptr %2, align 8
  %68 = getelementptr inbounds %struct._php_libxml_node_object, ptr %67, i32 0, i32 1
  %69 = load ptr, ptr %68, align 8
  %70 = getelementptr inbounds %struct._php_libxml_ref_obj, ptr %69, i32 0, i32 1
  %71 = load ptr, ptr %70, align 8
  call void @_efree(ptr noundef %71)
  br label %72

72:                                               ; preds = %66, %33
  %73 = load ptr, ptr %2, align 8
  %74 = getelementptr inbounds %struct._php_libxml_node_object, ptr %73, i32 0, i32 1
  %75 = load ptr, ptr %74, align 8
  call void @_efree(ptr noundef %75)
  br label %76

76:                                               ; preds = %72, %11
  %77 = load ptr, ptr %2, align 8
  %78 = getelementptr inbounds %struct._php_libxml_node_object, ptr %77, i32 0, i32 1
  store ptr null, ptr %78, align 8
  br label %79

79:                                               ; preds = %76, %6, %1
  %80 = load i32, ptr %3, align 4
  ret i32 %80
}