; Function Attrs: nounwind uwtable
define i32 @php_libxml_decrement_doc_ref(ptr noundef %0) local_unnamed_addr #0 {
  %.not = icmp eq ptr %0, null
  br i1 %.not, label %30, label %2

2:                                                ; preds = %1
  %3 = getelementptr inbounds i8, ptr %0, i64 8
  %4 = load ptr, ptr %3, align 8
  %.not18 = icmp eq ptr %4, null
  br i1 %.not18, label %30, label %5

5:                                                ; preds = %2
  %6 = getelementptr inbounds i8, ptr %4, i64 24
  %7 = load i32, ptr %6, align 8
  %8 = add nsw i32 %7, -1
  store i32 %8, ptr %6, align 8
  %9 = icmp eq i32 %8, 0
  br i1 %9, label %10, label %29

10:                                               ; preds = %5
  %11 = load ptr, ptr %3, align 8
  %12 = load ptr, ptr %11, align 8
  %.not19 = icmp eq ptr %12, null
  br i1 %.not19, label %14, label %13

13:                                               ; preds = %10
  tail call void @xmlFreeDoc(ptr noundef nonnull %12) #17
  %.pre = load ptr, ptr %3, align 8
  br label %14

14:                                               ; preds = %13, %10
  %15 = phi ptr [ %.pre, %13 ], [ %11, %10 ]
  %16 = getelementptr inbounds i8, ptr %15, i64 8
  %17 = load ptr, ptr %16, align 8
  %.not20 = icmp eq ptr %17, null
  br i1 %.not20, label %27, label %18

18:                                               ; preds = %14
  %19 = load ptr, ptr %17, align 8
  %.not21 = icmp eq ptr %19, null
  br i1 %.not21, label %25, label %20

20:                                               ; preds = %18
  tail call void @zend_hash_destroy(ptr noundef nonnull %19) #17
  %21 = load ptr, ptr %3, align 8
  %22 = getelementptr inbounds i8, ptr %21, i64 8
  %23 = load ptr, ptr %22, align 8
  %24 = load ptr, ptr %23, align 8
  tail call void @_efree_56(ptr noundef %24) #17
  %.pre22 = load ptr, ptr %3, align 8
  %.phi.trans.insert = getelementptr inbounds i8, ptr %.pre22, i64 8
  %.pre23 = load ptr, ptr %.phi.trans.insert, align 8
  br label %25

25:                                               ; preds = %20, %18
  %26 = phi ptr [ %.pre23, %20 ], [ %17, %18 ]
  tail call void @_efree(ptr noundef %26) #17
  %.pre24 = load ptr, ptr %3, align 8
  br label %27

27:                                               ; preds = %25, %14
  %28 = phi ptr [ %.pre24, %25 ], [ %15, %14 ]
  tail call void @_efree(ptr noundef %28) #17
  br label %29

29:                                               ; preds = %27, %5
  store ptr null, ptr %3, align 8
  br label %30

30:                                               ; preds = %29, %2, %1
  %.0 = phi i32 [ %8, %29 ], [ -1, %2 ], [ -1, %1 ]
  ret i32 %.0
}